target datalayout = "e-m:e-p270:32:32-p271:32:32-p272:64:64-i64:64-i128:128-f80:128-n8:16:32:64-S128"
target triple = "x86_64-pc-linux-gnu"

; Function Attrs: inlinehint mustprogress nounwind uwtable
define internal noundef signext i8 @_ZL9U_FAILURE10UErrorCode(i32 noundef %0) #2 {
  %2 = alloca i32, align 4
  store i32 %0, ptr %2, align 4, !tbaa !13
  %3 = load i32, ptr %2, align 4, !tbaa !13
  %4 = icmp sgt i32 %3, 0
  %5 = zext i1 %4 to i8
  ret i8 %5
}

; Function Attrs: mustprogress uwtable
define ptr @u_strToUTF32WithSub_77(ptr noundef %0, i32 noundef %1, ptr noundef %2, ptr noundef %3, i32 noundef %4, i32 noundef %5, ptr noundef %6, ptr noundef %7) #0 {
  %9 = alloca ptr, align 8
  %10 = alloca ptr, align 8
  %11 = alloca i32, align 4
  %12 = alloca ptr, align 8
  %13 = alloca ptr, align 8
  %14 = alloca i32, align 4
  %15 = alloca i32, align 4
  %16 = alloca ptr, align 8
  %17 = alloca ptr, align 8
  %18 = alloca ptr, align 8
  %19 = alloca i32, align 4
  %20 = alloca i16, align 2
  %21 = alloca ptr, align 8
  %22 = alloca ptr, align 8
  %23 = alloca i32, align 4
  %24 = alloca i32, align 4
  %25 = alloca i32, align 4
  store ptr %0, ptr %10, align 8, !tbaa !10
  store i32 %1, ptr %11, align 4, !tbaa !8
  store ptr %2, ptr %12, align 8, !tbaa !10
  store ptr %3, ptr %13, align 8, !tbaa !3
  store i32 %4, ptr %14, align 4, !tbaa !8
  store i32 %5, ptr %15, align 4, !tbaa !8
  store ptr %6, ptr %16, align 8, !tbaa !10
  store ptr %7, ptr %17, align 8, !tbaa !12
  call void @llvm.lifetime.start.p0(i64 8, ptr %18) #5
  call void @llvm.lifetime.start.p0(i64 4, ptr %19) #5
  call void @llvm.lifetime.start.p0(i64 2, ptr %20) #5
  call void @llvm.lifetime.start.p0(i64 8, ptr %21) #5
  call void @llvm.lifetime.start.p0(i64 8, ptr %22) #5
  call void @llvm.lifetime.start.p0(i64 4, ptr %23) #5
  call void @llvm.lifetime.start.p0(i64 4, ptr %24) #5
  %26 = load ptr, ptr %17, align 8, !tbaa !12
  %27 = load i32, ptr %26, align 4, !tbaa !13
  %28 = call noundef signext i8 @_ZL9U_FAILURE10UErrorCode(i32 noundef %27)
  %29 = icmp ne i8 %28, 0
  br i1 %29, label %30, label %31

30:                                               ; preds = %8
  store ptr null, ptr %9, align 8
  store i32 1, ptr %25, align 4
  br label %216

31:                                               ; preds = %8
  %32 = load ptr, ptr %13, align 8, !tbaa !3
  %33 = icmp eq ptr %32, null
  br i1 %33, label %34, label %37

34:                                               ; preds = %31
  %35 = load i32, ptr %14, align 4, !tbaa !8
  %36 = icmp ne i32 %35, 0
  br i1 %36, label %56, label %37

37:                                               ; preds = %34, %31
  %38 = load i32, ptr %14, align 4, !tbaa !8
  %39 = icmp slt i32 %38, -1
  br i1 %39, label %56, label %40

40:                                               ; preds = %37
  %41 = load i32, ptr %11, align 4, !tbaa !8
  %42 = icmp slt i32 %41, 0
  br i1 %42, label %56, label %43

43:                                               ; preds = %40
  %44 = load ptr, ptr %10, align 8, !tbaa !10
  %45 = icmp eq ptr %44, null
  br i1 %45, label %46, label %49

46:                                               ; preds = %43
  %47 = load i32, ptr %11, align 4, !tbaa !8
  %48 = icmp sgt i32 %47, 0
  br i1 %48, label %56, label %49

49:                                               ; preds = %46, %43
  %50 = load i32, ptr %15, align 4, !tbaa !8
  %51 = icmp sgt i32 %50, 1114111
  br i1 %51, label %56, label %52

52:                                               ; preds = %49
  %53 = load i32, ptr %15, align 4, !tbaa !8
  %54 = and i32 %53, -2048
  %55 = icmp eq i32 %54, 55296
  br i1 %55, label %56, label %58

56:                                               ; preds = %52, %49, %46, %40, %37, %34
  %57 = load ptr, ptr %17, align 8, !tbaa !12
  store i32 1, ptr %57, align 4, !tbaa !13
  store ptr null, ptr %9, align 8
  store i32 1, ptr %25, align 4
  br label %216

58:                                               ; preds = %52
  %59 = load ptr, ptr %16, align 8, !tbaa !10
  %60 = icmp ne ptr %59, null
  br i1 %60, label %61, label %63

61:                                               ; preds = %58
  %62 = load ptr, ptr %16, align 8, !tbaa !10
  store i32 0, ptr %62, align 4, !tbaa !8
  br label %63

63:                                               ; preds = %61, %58
  %64 = load ptr, ptr %10, align 8, !tbaa !10
  store ptr %64, ptr %22, align 8, !tbaa !10
  %65 = load ptr, ptr %10, align 8, !tbaa !10
  %66 = icmp ne ptr %65, null
  br i1 %66, label %67, label %72

67:                                               ; preds = %63
  %68 = load ptr, ptr %10, align 8, !tbaa !10
  %69 = load i32, ptr %11, align 4, !tbaa !8
  %70 = sext i32 %69 to i64
  %71 = getelementptr inbounds i32, ptr %68, i64 %70
  br label %73

72:                                               ; preds = %63
  br label %73

73:                                               ; preds = %72, %67
  %74 = phi ptr [ %71, %67 ], [ null, %72 ]
  store ptr %74, ptr %21, align 8, !tbaa !10
  store i32 0, ptr %23, align 4, !tbaa !8
  store i32 0, ptr %24, align 4, !tbaa !8
  %75 = load i32, ptr %14, align 4, !tbaa !8
  %76 = icmp slt i32 %75, 0
  br i1 %76, label %77, label %118

77:                                               ; preds = %73
  br label %78

78:                                               ; preds = %103, %77
  %79 = load ptr, ptr %13, align 8, !tbaa !3
  %80 = load i16, ptr %79, align 2, !tbaa !15
  %81 = zext i16 %80 to i32
  store i32 %81, ptr %19, align 4, !tbaa !8
  %82 = icmp ne i32 %81, 0
  br i1 %82, label %83, label %88

83:                                               ; preds = %78
  %84 = load i32, ptr %19, align 4, !tbaa !8
  %85 = and i32 %84, -2048
  %86 = icmp eq i32 %85, 55296
  %87 = xor i1 %86, true
  br label %88

88:                                               ; preds = %83, %78
  %89 = phi i1 [ false, %78 ], [ %87, %83 ]
  br i1 %89, label %90, label %104

90:                                               ; preds = %88
  %91 = load ptr, ptr %13, align 8, !tbaa !3
  %92 = getelementptr inbounds nuw i16, ptr %91, i32 1
  store ptr %92, ptr %13, align 8, !tbaa !3
  %93 = load ptr, ptr %22, align 8, !tbaa !10
  %94 = load ptr, ptr %21, align 8, !tbaa !10
  %95 = icmp ult ptr %93, %94
  br i1 %95, label %96, label %100

96:                                               ; preds = %90
  %97 = load i32, ptr %19, align 4, !tbaa !8
  %98 = load ptr, ptr %22, align 8, !tbaa !10
  %99 = getelementptr inbounds nuw i32, ptr %98, i32 1
  store ptr %99, ptr %22, align 8, !tbaa !10
  store i32 %97, ptr %98, align 4, !tbaa !8
  br label %103

100:                                              ; preds = %90
  %101 = load i32, ptr %23, align 4, !tbaa !8
  %102 = add nsw i32 %101, 1
  store i32 %102, ptr %23, align 4, !tbaa !8
  br label %103

103:                                              ; preds = %100, %96
  br label %78, !llvm.loop !22

104:                                              ; preds = %88
  %105 = load ptr, ptr %13, align 8, !tbaa !3
  store ptr %105, ptr %18, align 8, !tbaa !3
  %106 = load i32, ptr %19, align 4, !tbaa !8
  %107 = icmp ne i32 %106, 0
  br i1 %107, label %108, label %117

108:                                              ; preds = %104
  br label %109

109:                                              ; preds = %115, %108
  %110 = load ptr, ptr %18, align 8, !tbaa !3
  %111 = getelementptr inbounds nuw i16, ptr %110, i32 1
  store ptr %111, ptr %18, align 8, !tbaa !3
  %112 = load i16, ptr %111, align 2, !tbaa !15
  %113 = zext i16 %112 to i32
  %114 = icmp ne i32 %113, 0
  br i1 %114, label %115, label %116

115:                                              ; preds = %109
  br label %109, !llvm.loop !23

116:                                              ; preds = %109
  br label %117

117:                                              ; preds = %116, %104
  br label %129

118:                                              ; preds = %73
  %119 = load ptr, ptr %13, align 8, !tbaa !3
  %120 = icmp ne ptr %119, null
  br i1 %120, label %121, label %126

121:                                              ; preds = %118
  %122 = load ptr, ptr %13, align 8, !tbaa !3
  %123 = load i32, ptr %14, align 4, !tbaa !8
  %124 = sext i32 %123 to i64
  %125 = getelementptr inbounds i16, ptr %122, i64 %124
  br label %127

126:                                              ; preds = %118
  br label %127

127:                                              ; preds = %126, %121
  %128 = phi ptr [ %125, %121 ], [ null, %126 ]
  store ptr %128, ptr %18, align 8, !tbaa !3
  br label %129

129:                                              ; preds = %127, %117
  br label %130

130:                                              ; preds = %187, %129
  %131 = load ptr, ptr %13, align 8, !tbaa !3
  %132 = load ptr, ptr %18, align 8, !tbaa !3
  %133 = icmp ult ptr %131, %132
  br i1 %133, label %134, label %188

134:                                              ; preds = %130
  %135 = load ptr, ptr %13, align 8, !tbaa !3
  %136 = getelementptr inbounds nuw i16, ptr %135, i32 1
  store ptr %136, ptr %13, align 8, !tbaa !3
  %137 = load i16, ptr %135, align 2, !tbaa !15
  %138 = zext i16 %137 to i32
  store i32 %138, ptr %19, align 4, !tbaa !8
  %139 = load i32, ptr %19, align 4, !tbaa !8
  %140 = and i32 %139, -2048
  %141 = icmp eq i32 %140, 55296
  br i1 %141, label %143, label %142

142:                                              ; preds = %134
  br label %176

143:                                              ; preds = %134
  %144 = load i32, ptr %19, align 4, !tbaa !8
  %145 = and i32 %144, 1024
  %146 = icmp eq i32 %145, 0
  br i1 %146, label %147, label %166

147:                                              ; preds = %143
  %148 = load ptr, ptr %13, align 8, !tbaa !3
  %149 = load ptr, ptr %18, align 8, !tbaa !3
  %150 = icmp ult ptr %148, %149
  br i1 %150, label %151, label %166

151:                                              ; preds = %147
  %152 = load ptr, ptr %13, align 8, !tbaa !3
  %153 = load i16, ptr %152, align 2, !tbaa !15
  store i16 %153, ptr %20, align 2, !tbaa !15
  %154 = zext i16 %153 to i32
  %155 = and i32 %154, -1024
  %156 = icmp eq i32 %155, 56320
  br i1 %156, label %157, label %166

157:                                              ; preds = %151
  %158 = load ptr, ptr %13, align 8, !tbaa !3
  %159 = getelementptr inbounds nuw i16, ptr %158, i32 1
  store ptr %159, ptr %13, align 8, !tbaa !3
  %160 = load i32, ptr %19, align 4, !tbaa !8
  %161 = shl i32 %160, 10
  %162 = load i16, ptr %20, align 2, !tbaa !15
  %163 = zext i16 %162 to i32
  %164 = add nsw i32 %161, %163
  %165 = sub nsw i32 %164, 56613888
  store i32 %165, ptr %19, align 4, !tbaa !8
  br label %175

166:                                              ; preds = %151, %147, %143
  %167 = load i32, ptr %15, align 4, !tbaa !8
  store i32 %167, ptr %19, align 4, !tbaa !8
  %168 = icmp slt i32 %167, 0
  br i1 %168, label %169, label %171

169:                                              ; preds = %166
  %170 = load ptr, ptr %17, align 8, !tbaa !12
  store i32 10, ptr %170, align 4, !tbaa !13
  store ptr null, ptr %9, align 8
  store i32 1, ptr %25, align 4
  br label %216

171:                                              ; preds = %166
  %172 = load i32, ptr %24, align 4, !tbaa !8
  %173 = add nsw i32 %172, 1
  store i32 %173, ptr %24, align 4, !tbaa !8
  br label %174

174:                                              ; preds = %171
  br label %175

175:                                              ; preds = %174, %157
  br label %176

176:                                              ; preds = %175, %142
  %177 = load ptr, ptr %22, align 8, !tbaa !10
  %178 = load ptr, ptr %21, align 8, !tbaa !10
  %179 = icmp ult ptr %177, %178
  br i1 %179, label %180, label %184

180:                                              ; preds = %176
  %181 = load i32, ptr %19, align 4, !tbaa !8
  %182 = load ptr, ptr %22, align 8, !tbaa !10
  %183 = getelementptr inbounds nuw i32, ptr %182, i32 1
  store ptr %183, ptr %22, align 8, !tbaa !10
  store i32 %181, ptr %182, align 4, !tbaa !8
  br label %187

184:                                              ; preds = %176
  %185 = load i32, ptr %23, align 4, !tbaa !8
  %186 = add nsw i32 %185, 1
  store i32 %186, ptr %23, align 4, !tbaa !8
  br label %187

187:                                              ; preds = %184, %180
  br label %130, !llvm.loop !24

188:                                              ; preds = %130
  %189 = load ptr, ptr %22, align 8, !tbaa !10
  %190 = load ptr, ptr %10, align 8, !tbaa !10
  %191 = ptrtoint ptr %189 to i64
  %192 = ptrtoint ptr %190 to i64
  %193 = sub i64 %191, %192
  %194 = sdiv exact i64 %193, 4
  %195 = trunc i64 %194 to i32
  %196 = load i32, ptr %23, align 4, !tbaa !8
  %197 = add nsw i32 %196, %195
  store i32 %197, ptr %23, align 4, !tbaa !8
  %198 = load ptr, ptr %12, align 8, !tbaa !10
  %199 = icmp ne ptr %198, null
  br i1 %199, label %200, label %203

200:                                              ; preds = %188
  %201 = load i32, ptr %23, align 4, !tbaa !8
  %202 = load ptr, ptr %12, align 8, !tbaa !10
  store i32 %201, ptr %202, align 4, !tbaa !8
  br label %203

203:                                              ; preds = %200, %188
  %204 = load ptr, ptr %16, align 8, !tbaa !10
  %205 = icmp ne ptr %204, null
  br i1 %205, label %206, label %209

206:                                              ; preds = %203
  %207 = load i32, ptr %24, align 4, !tbaa !8
  %208 = load ptr, ptr %16, align 8, !tbaa !10
  store i32 %207, ptr %208, align 4, !tbaa !8
  br label %209

209:                                              ; preds = %206, %203
  %210 = load ptr, ptr %10, align 8, !tbaa !10
  %211 = load i32, ptr %11, align 4, !tbaa !8
  %212 = load i32, ptr %23, align 4, !tbaa !8
  %213 = load ptr, ptr %17, align 8, !tbaa !12
  %214 = call i32 @u_terminateUChar32s_77(ptr noundef %210, i32 noundef %211, i32 noundef %212, ptr noundef %213)
  %215 = load ptr, ptr %10, align 8, !tbaa !10
  store ptr %215, ptr %9, align 8
  store i32 1, ptr %25, align 4
  br label %216

216:                                              ; preds = %209, %169, %56, %30
  call void @llvm.lifetime.end.p0(i64 4, ptr %24) #5
  call void @llvm.lifetime.end.p0(i64 4, ptr %23) #5
  call void @llvm.lifetime.end.p0(i64 8, ptr %22) #5
  call void @llvm.lifetime.end.p0(i64 8, ptr %21) #5
  call void @llvm.lifetime.end.p0(i64 2, ptr %20) #5
  call void @llvm.lifetime.end.p0(i64 4, ptr %19) #5
  call void @llvm.lifetime.end.p0(i64 8, ptr %18) #5
  %217 = load ptr, ptr %9, align 8
  ret ptr %217
}