; Function Attrs: mustprogress uwtable
define noundef ptr @u_strToUTF32WithSub_77(ptr noundef %0, i32 noundef %1, ptr noundef writeonly %2, ptr noundef readonly %3, i32 noundef %4, i32 noundef %5, ptr noundef writeonly %6, ptr noundef %7) local_unnamed_addr #0 {
  %9 = load i32, ptr %7, align 4, !tbaa !3
  %10 = icmp slt i32 %9, 1
  br i1 %10, label %11, label %125

11:                                               ; preds = %8
  %12 = icmp eq ptr %3, null
  %13 = icmp ne i32 %4, 0
  %or.cond = and i1 %12, %13
  %14 = icmp slt i32 %4, -1
  %or.cond3 = or i1 %14, %or.cond
  %15 = icmp slt i32 %1, 0
  %or.cond5 = or i1 %15, %or.cond3
  br i1 %or.cond5, label %22, label %16

16:                                               ; preds = %11
  %17 = icmp eq ptr %0, null
  %18 = icmp ne i32 %1, 0
  %or.cond7 = and i1 %17, %18
  %19 = icmp sgt i32 %5, 1114111
  %or.cond9 = or i1 %or.cond7, %19
  %20 = and i32 %5, -2048
  %21 = icmp eq i32 %20, 55296
  %or.cond102 = or i1 %or.cond9, %21
  br i1 %or.cond102, label %22, label %23

22:                                               ; preds = %16, %11
  store i32 1, ptr %7, align 4, !tbaa !3
  br label %125

23:                                               ; preds = %16
  %.not96 = icmp eq ptr %6, null
  br i1 %.not96, label %25, label %24

24:                                               ; preds = %23
  store i32 0, ptr %6, align 4, !tbaa !7
  br label %25

25:                                               ; preds = %24, %23
  %26 = zext nneg i32 %1 to i64
  %27 = getelementptr inbounds nuw i32, ptr %0, i64 %26
  %28 = select i1 %17, ptr null, ptr %27
  %29 = icmp slt i32 %4, 0
  br i1 %29, label %.preheader104, label %52

.preheader104:                                    ; preds = %25
  %30 = load i16, ptr %3, align 2, !tbaa !9
  %31 = zext i16 %30 to i32
  %32 = icmp ne i16 %30, 0
  %33 = and i32 %31, 63488
  %34 = icmp ne i32 %33, 55296
  %35 = and i1 %32, %34
  br i1 %35, label %.lr.ph, label %._crit_edge

.lr.ph:                                           ; preds = %.preheader104, %43
  %36 = phi i32 [ %45, %43 ], [ %31, %.preheader104 ]
  %.073111 = phi i32 [ %.174, %43 ], [ 0, %.preheader104 ]
  %.075110 = phi ptr [ %.176, %43 ], [ %0, %.preheader104 ]
  %.081109 = phi ptr [ %37, %43 ], [ %3, %.preheader104 ]
  %37 = getelementptr inbounds nuw i8, ptr %.081109, i64 2
  %38 = icmp ult ptr %.075110, %28
  br i1 %38, label %39, label %41

39:                                               ; preds = %.lr.ph
  %40 = getelementptr inbounds nuw i8, ptr %.075110, i64 4
  store i32 %36, ptr %.075110, align 4, !tbaa !7
  br label %43

41:                                               ; preds = %.lr.ph
  %42 = add nsw i32 %.073111, 1
  br label %43

43:                                               ; preds = %41, %39
  %.176 = phi ptr [ %40, %39 ], [ %.075110, %41 ]
  %.174 = phi i32 [ %.073111, %39 ], [ %42, %41 ]
  %44 = load i16, ptr %37, align 2, !tbaa !9
  %45 = zext i16 %44 to i32
  %46 = icmp ne i16 %44, 0
  %47 = and i32 %45, 63488
  %48 = icmp ne i32 %47, 55296
  %49 = and i1 %46, %48
  br i1 %49, label %.lr.ph, label %._crit_edge, !llvm.loop !16

._crit_edge:                                      ; preds = %43, %.preheader104
  %.081.lcssa = phi ptr [ %3, %.preheader104 ], [ %37, %43 ]
  %.075.lcssa = phi ptr [ %0, %.preheader104 ], [ %.176, %43 ]
  %.073.lcssa = phi i32 [ 0, %.preheader104 ], [ %.174, %43 ]
  %.lcssa108 = phi i1 [ %32, %.preheader104 ], [ %46, %43 ]
  br i1 %.lcssa108, label %.preheader, label %._crit_edge121

.preheader:                                       ; preds = %._crit_edge, %.preheader
  %.086 = phi ptr [ %50, %.preheader ], [ %.081.lcssa, %._crit_edge ]
  %50 = getelementptr inbounds nuw i8, ptr %.086, i64 2
  %51 = load i16, ptr %50, align 2, !tbaa !9
  %.not99 = icmp eq i16 %51, 0
  br i1 %.not99, label %.loopexit, label %.preheader, !llvm.loop !17

52:                                               ; preds = %25
  %53 = zext nneg i32 %4 to i64
  %54 = getelementptr inbounds nuw i16, ptr %3, i64 %53
  %55 = select i1 %12, ptr null, ptr %54
  br label %.loopexit

.loopexit:                                        ; preds = %.preheader, %52
  %.187 = phi ptr [ %55, %52 ], [ %50, %.preheader ]
  %.182 = phi ptr [ %3, %52 ], [ %.081.lcssa, %.preheader ]
  %.277 = phi ptr [ %0, %52 ], [ %.075.lcssa, %.preheader ]
  %.2 = phi i32 [ 0, %52 ], [ %.073.lcssa, %.preheader ]
  %56 = icmp ult ptr %.182, %.187
  br i1 %56, label %.lr.ph120, label %._crit_edge121

.lr.ph120:                                        ; preds = %.loopexit
  %57 = icmp slt i32 %5, 0
  br i1 %57, label %.lr.ph120.split.us, label %.lr.ph120.split

.lr.ph120.split.us:                               ; preds = %.lr.ph120, %83
  %.3117.us = phi i32 [ %.4.us, %83 ], [ %.2, %.lr.ph120 ]
  %.378116.us = phi ptr [ %.479.us, %83 ], [ %.277, %.lr.ph120 ]
  %.283115.us = phi ptr [ %.384.us, %83 ], [ %.182, %.lr.ph120 ]
  %58 = getelementptr inbounds nuw i8, ptr %.283115.us, i64 2
  %59 = load i16, ptr %.283115.us, align 2, !tbaa !9
  %60 = zext i16 %59 to i32
  %61 = and i32 %60, 63488
  %62 = icmp eq i32 %61, 55296
  br i1 %62, label %63, label %77

63:                                               ; preds = %.lr.ph120.split.us
  %64 = and i32 %60, 1024
  %65 = icmp eq i32 %64, 0
  %66 = icmp ult ptr %58, %.187
  %or.cond103.us = select i1 %65, i1 %66, i1 false
  br i1 %or.cond103.us, label %67, label %.split.us

67:                                               ; preds = %63
  %68 = load i16, ptr %58, align 2, !tbaa !9
  %69 = zext i16 %68 to i32
  %70 = and i32 %69, 64512
  %71 = icmp eq i32 %70, 56320
  br i1 %71, label %72, label %.split.us

72:                                               ; preds = %67
  %73 = getelementptr inbounds nuw i8, ptr %.283115.us, i64 4
  %74 = shl nuw nsw i32 %60, 10
  %75 = add nsw i32 %74, -56613888
  %76 = add nuw nsw i32 %75, %69
  br label %77

77:                                               ; preds = %72, %.lr.ph120.split.us
  %.085.us = phi i32 [ %76, %72 ], [ %60, %.lr.ph120.split.us ]
  %.384.us = phi ptr [ %73, %72 ], [ %58, %.lr.ph120.split.us ]
  %78 = icmp ult ptr %.378116.us, %28
  br i1 %78, label %81, label %79

79:                                               ; preds = %77
  %80 = add nsw i32 %.3117.us, 1
  br label %83

81:                                               ; preds = %77
  %82 = getelementptr inbounds nuw i8, ptr %.378116.us, i64 4
  store i32 %.085.us, ptr %.378116.us, align 4, !tbaa !7
  br label %83

83:                                               ; preds = %81, %79
  %.479.us = phi ptr [ %82, %81 ], [ %.378116.us, %79 ]
  %.4.us = phi i32 [ %.3117.us, %81 ], [ %80, %79 ]
  %84 = icmp ult ptr %.384.us, %.187
  br i1 %84, label %.lr.ph120.split.us, label %._crit_edge121, !llvm.loop !18

.lr.ph120.split:                                  ; preds = %.lr.ph120, %112
  %.0118 = phi i32 [ %.1, %112 ], [ 0, %.lr.ph120 ]
  %.3117 = phi i32 [ %.4, %112 ], [ %.2, %.lr.ph120 ]
  %.378116 = phi ptr [ %.479, %112 ], [ %.277, %.lr.ph120 ]
  %.283115 = phi ptr [ %.384, %112 ], [ %.182, %.lr.ph120 ]
  %85 = getelementptr inbounds nuw i8, ptr %.283115, i64 2
  %86 = load i16, ptr %.283115, align 2, !tbaa !9
  %87 = zext i16 %86 to i32
  %88 = and i32 %87, 63488
  %89 = icmp eq i32 %88, 55296
  br i1 %89, label %90, label %106

90:                                               ; preds = %.lr.ph120.split
  %91 = and i32 %87, 1024
  %92 = icmp eq i32 %91, 0
  %93 = icmp ult ptr %85, %.187
  %or.cond103 = select i1 %92, i1 %93, i1 false
  br i1 %or.cond103, label %94, label %104

94:                                               ; preds = %90
  %95 = load i16, ptr %85, align 2, !tbaa !9
  %96 = zext i16 %95 to i32
  %97 = and i32 %96, 64512
  %98 = icmp eq i32 %97, 56320
  br i1 %98, label %99, label %104

99:                                               ; preds = %94
  %100 = getelementptr inbounds nuw i8, ptr %.283115, i64 4
  %101 = shl nuw nsw i32 %87, 10
  %102 = add nsw i32 %101, -56613888
  %103 = add nuw nsw i32 %102, %96
  br label %106

104:                                              ; preds = %94, %90
  %105 = add nsw i32 %.0118, 1
  br label %106

.split.us:                                        ; preds = %67, %63
  store i32 10, ptr %7, align 4, !tbaa !3
  br label %125

106:                                              ; preds = %99, %104, %.lr.ph120.split
  %.085 = phi i32 [ %103, %99 ], [ %5, %104 ], [ %87, %.lr.ph120.split ]
  %.384 = phi ptr [ %100, %99 ], [ %85, %104 ], [ %85, %.lr.ph120.split ]
  %.1 = phi i32 [ %.0118, %99 ], [ %105, %104 ], [ %.0118, %.lr.ph120.split ]
  %107 = icmp ult ptr %.378116, %28
  br i1 %107, label %108, label %110

108:                                              ; preds = %106
  %109 = getelementptr inbounds nuw i8, ptr %.378116, i64 4
  store i32 %.085, ptr %.378116, align 4, !tbaa !7
  br label %112

110:                                              ; preds = %106
  %111 = add nsw i32 %.3117, 1
  br label %112

112:                                              ; preds = %110, %108
  %.479 = phi ptr [ %109, %108 ], [ %.378116, %110 ]
  %.4 = phi i32 [ %.3117, %108 ], [ %111, %110 ]
  %113 = icmp ult ptr %.384, %.187
  br i1 %113, label %.lr.ph120.split, label %._crit_edge121, !llvm.loop !18

._crit_edge121:                                   ; preds = %112, %83, %._crit_edge, %.loopexit
  %.378.lcssa = phi ptr [ %.277, %.loopexit ], [ %.075.lcssa, %._crit_edge ], [ %.479.us, %83 ], [ %.479, %112 ]
  %.3.lcssa = phi i32 [ %.2, %.loopexit ], [ %.073.lcssa, %._crit_edge ], [ %.4.us, %83 ], [ %.4, %112 ]
  %.0.lcssa = phi i32 [ 0, %.loopexit ], [ 0, %._crit_edge ], [ 0, %83 ], [ %.1, %112 ]
  %114 = ptrtoint ptr %.378.lcssa to i64
  %115 = ptrtoint ptr %0 to i64
  %116 = sub i64 %114, %115
  %117 = lshr exact i64 %116, 2
  %118 = trunc i64 %117 to i32
  %119 = add nsw i32 %.3.lcssa, %118
  %.not100 = icmp eq ptr %2, null
  br i1 %.not100, label %121, label %120

120:                                              ; preds = %._crit_edge121
  store i32 %119, ptr %2, align 4, !tbaa !7
  br label %121

121:                                              ; preds = %120, %._crit_edge121
  br i1 %.not96, label %123, label %122

122:                                              ; preds = %121
  store i32 %.0.lcssa, ptr %6, align 4, !tbaa !7
  br label %123

123:                                              ; preds = %122, %121
  %124 = tail call i32 @u_terminateUChar32s_77(ptr noundef %0, i32 noundef %1, i32 noundef %119, ptr noundef nonnull %7)
  br label %125

125:                                              ; preds = %8, %123, %.split.us, %22
  %.080 = phi ptr [ null, %22 ], [ null, %.split.us ], [ %0, %123 ], [ null, %8 ]
  ret ptr %.080
}